target datalayout = "e-m:e-p270:32:32-p271:32:32-p272:64:64-i64:64-i128:128-f80:128-n8:16:32:64-S128"
target triple = "x86_64-unknown-linux-gnu"

%struct.VirtIOBlockDataPlane = type { i8, i8, ptr, ptr, ptr, ptr }
%struct.VirtIOBlkConf = type { %struct.BlockConf, ptr, ptr, i32, i16, i16, i8, i8, i32, i32, i8 }
%struct.BlockConf = type { ptr, i32, i32, i32, i32, i32, i32, i32, i32, i32, i32, i32, i32, i32, i32, i8, i32, i32, i32, i32 }
%struct.VirtioBusClass = type { %struct.BusClass, ptr, ptr, ptr, ptr, ptr, ptr, ptr, ptr, ptr, ptr, ptr, ptr, ptr, ptr, ptr, ptr, ptr, ptr, ptr, ptr, i8, ptr, ptr }
%struct.BusClass = type { %struct.ObjectClass, ptr, ptr, ptr, ptr, ptr, ptr, ptr, i32, i32 }
%struct.ObjectClass = type { ptr, ptr, [4 x ptr], [4 x ptr], ptr, ptr }
%struct.VirtIOBlock = type { %struct.VirtIODevice, ptr, ptr, %struct.VirtIOBlkConf, i16, i8, ptr, i8, i8, ptr, i64, i64, %struct.BlockRAMRegistrar }
%struct.VirtIODevice = type { %struct.DeviceState, ptr, i8, i8, i16, i64, i64, i64, i64, ptr, i16, i32, i32, ptr, %struct.MemoryListener, i16, i8, i8, i8, i8, i8, i8, i8, i8, i8, ptr, ptr, i8, i8, ptr, ptr, %union.anon.1, %struct.EventNotifier, i8 }
%struct.DeviceState = type { %struct.Object, ptr, ptr, i8, i8, i64, ptr, i32, i8, ptr, %struct.NamedGPIOListHead, %struct.NamedClockListHead, %struct.BusStateHead, i32, i32, i32, %struct.ResettableState, ptr, %struct.MemReentrancyGuard }
%struct.Object = type { ptr, ptr, ptr, i32, ptr }
%struct.NamedGPIOListHead = type { ptr }
%struct.NamedClockListHead = type { ptr }
%struct.BusStateHead = type { ptr }
%struct.ResettableState = type { i32, i8, i8 }
%struct.MemReentrancyGuard = type { i8 }
%struct.MemoryListener = type { ptr, ptr, ptr, ptr, ptr, ptr, ptr, ptr, ptr, ptr, ptr, ptr, ptr, ptr, ptr, ptr, ptr, i32, ptr, ptr, %union.anon, %union.anon.0 }
%union.anon = type { %struct.QTailQLink }
%struct.QTailQLink = type { ptr, ptr }
%union.anon.0 = type { %struct.QTailQLink }
%union.anon.1 = type { %struct.QTailQLink }
%struct.EventNotifier = type { i32, i32, i8 }
%struct.BlockRAMRegistrar = type { ptr, %struct.RAMBlockNotifier, i8 }
%struct.RAMBlockNotifier = type { ptr, ptr, ptr, %struct.anon }
%struct.anon = type { ptr, ptr }
%struct.BusState = type { %struct.Object, ptr, ptr, ptr, i32, i8, i8, i32, %union.BusChildHead, %struct.BusStateEntry, %struct.ResettableState }
%union.BusChildHead = type { %struct.QTailQLink }
%struct.BusStateEntry = type { ptr, ptr }
%struct.timeval = type { i64, i64 }

@.str.8 = private unnamed_addr constant [101 x i8] c"/home/dtcxzyw/WorkSpace/Projects/compilers/llvm-opt-benchmark/bench/qemu/qemu/include/hw/qdev-core.h\00", align 1
@.str.9 = private unnamed_addr constant [7 x i8] c"device\00", align 1
@__func__.DEVICE = private unnamed_addr constant [7 x i8] c"DEVICE\00", align 1
@.str.10 = private unnamed_addr constant [11 x i8] c"virtio-bus\00", align 1
@.str.11 = private unnamed_addr constant [109 x i8] c"/home/dtcxzyw/WorkSpace/Projects/compilers/llvm-opt-benchmark/bench/qemu/qemu/include/hw/virtio/virtio-bus.h\00", align 1
@__func__.VIRTIO_BUS_GET_CLASS = private unnamed_addr constant [21 x i8] c"VIRTIO_BUS_GET_CLASS\00", align 1
@.str.12 = private unnamed_addr constant [18 x i8] c"virtio-blk-device\00", align 1
@.str.13 = private unnamed_addr constant [109 x i8] c"/home/dtcxzyw/WorkSpace/Projects/compilers/llvm-opt-benchmark/bench/qemu/qemu/include/hw/virtio/virtio-blk.h\00", align 1
@__func__.VIRTIO_BLK = private unnamed_addr constant [11 x i8] c"VIRTIO_BLK\00", align 1
@__func__.VIRTIO_BUS = private unnamed_addr constant [11 x i8] c"VIRTIO_BUS\00", align 1
@trace_events_enabled_count = external global i32, align 4
@message_with_timestamp = external global i8, align 1
@qemu_loglevel = external global i32, align 4
@_TRACE_VIRTIO_BLK_DATA_PLANE_STOP_DSTATE = external global i16, align 2
@.str.16 = private unnamed_addr constant [54 x i8] c"%d@%zu.%06zu:virtio_blk_data_plane_stop dataplane %p\0A\00", align 1
@.str.17 = private unnamed_addr constant [41 x i8] c"virtio_blk_data_plane_stop dataplane %p\0A\00", align 1

; Function Attrs: nounwind sspstrong uwtable
define internal zeroext i1 @qemu_loglevel_mask(i32 noundef %mask) #0 {
entry:
  %mask.addr = alloca i32, align 4
  store i32 %mask, ptr %mask.addr, align 4
  %0 = load i32, ptr @qemu_loglevel, align 4
  %1 = load i32, ptr %mask.addr, align 4
  %and = and i32 %0, %1
  %cmp = icmp ne i32 %and, 0
  ret i1 %cmp
}

; Function Attrs: nounwind sspstrong uwtable
define internal void @_nocheck__trace_virtio_blk_data_plane_stop(ptr noundef %s) #0 {
entry:
  %s.addr = alloca ptr, align 8
  %_now = alloca %struct.timeval, align 8
  store ptr %s, ptr %s.addr, align 8
  %0 = load i32, ptr @trace_events_enabled_count, align 4
  %tobool = icmp ne i32 %0, 0
  %lnot = xor i1 %tobool, true
  %lnot1 = xor i1 %lnot, true
  %lnot.ext = zext i1 %lnot1 to i32
  %conv = sext i32 %lnot.ext to i64
  %tobool2 = icmp ne i64 %conv, 0
  br i1 %tobool2, label %land.lhs.true, label %if.end11

land.lhs.true:                                    ; preds = %entry
  %1 = load i16, ptr @_TRACE_VIRTIO_BLK_DATA_PLANE_STOP_DSTATE, align 2
  %conv3 = zext i16 %1 to i32
  %tobool4 = icmp ne i32 %conv3, 0
  br i1 %tobool4, label %land.lhs.true5, label %if.end11

land.lhs.true5:                                   ; preds = %land.lhs.true
  %call = call zeroext i1 @qemu_loglevel_mask(i32 noundef 32768)
  br i1 %call, label %if.then, label %if.end11

if.then:                                          ; preds = %land.lhs.true5
  %2 = load i8, ptr @message_with_timestamp, align 1
  %tobool7 = trunc i8 %2 to i1
  br i1 %tobool7, label %if.then8, label %if.else

if.then8:                                         ; preds = %if.then
  %call9 = call i32 @gettimeofday(ptr noundef %_now, ptr noundef null) #7
  %call10 = call i32 @qemu_get_thread_id()
  %tv_sec = getelementptr inbounds %struct.timeval, ptr %_now, i32 0, i32 0
  %3 = load i64, ptr %tv_sec, align 8
  %tv_usec = getelementptr inbounds %struct.timeval, ptr %_now, i32 0, i32 1
  %4 = load i64, ptr %tv_usec, align 8
  %5 = load ptr, ptr %s.addr, align 8
  call void (ptr, ...) @qemu_log(ptr noundef @.str.16, i32 noundef %call10, i64 noundef %3, i64 noundef %4, ptr noundef %5)
  br label %if.end

if.else:                                          ; preds = %if.then
  %6 = load ptr, ptr %s.addr, align 8
  call void (ptr, ...) @qemu_log(ptr noundef @.str.17, ptr noundef %6)
  br label %if.end

if.end:                                           ; preds = %if.else, %if.then8
  br label %if.end11

if.end11:                                         ; preds = %if.end, %land.lhs.true5, %land.lhs.true, %entry
  ret void
}

; Function Attrs: nounwind sspstrong uwtable
define internal ptr @VIRTIO_BUS(ptr noundef %obj) #0 {
entry:
  %obj.addr = alloca ptr, align 8
  store ptr %obj, ptr %obj.addr, align 8
  %0 = load ptr, ptr %obj.addr, align 8
  %call = call ptr @object_dynamic_cast_assert(ptr noundef %0, ptr noundef @.str.10, ptr noundef @.str.11, i32 noundef 36, ptr noundef @__func__.VIRTIO_BUS)
  ret ptr %call
}

; Function Attrs: nounwind sspstrong uwtable
define internal void @trace_virtio_blk_data_plane_stop(ptr noundef %s) #0 {
entry:
  %s.addr = alloca ptr, align 8
  store ptr %s, ptr %s.addr, align 8
  %0 = load ptr, ptr %s.addr, align 8
  call void @_nocheck__trace_virtio_blk_data_plane_stop(ptr noundef %0)
  ret void
}

; Function Attrs: nounwind sspstrong uwtable
define internal ptr @VIRTIO_BUS_GET_CLASS(ptr noundef %obj) #0 {
entry:
  %obj.addr = alloca ptr, align 8
  store ptr %obj, ptr %obj.addr, align 8
  %0 = load ptr, ptr %obj.addr, align 8
  %call = call ptr @object_get_class(ptr noundef %0)
  %call1 = call ptr @object_class_dynamic_cast_assert(ptr noundef %call, ptr noundef @.str.10, ptr noundef @.str.11, i32 noundef 36, ptr noundef @__func__.VIRTIO_BUS_GET_CLASS)
  ret ptr %call1
}

; Function Attrs: nounwind sspstrong uwtable
define internal ptr @DEVICE(ptr noundef %obj) #0 {
entry:
  %obj.addr = alloca ptr, align 8
  store ptr %obj, ptr %obj.addr, align 8
  %0 = load ptr, ptr %obj.addr, align 8
  %call = call ptr @object_dynamic_cast_assert(ptr noundef %0, ptr noundef @.str.9, ptr noundef @.str.8, i32 noundef 77, ptr noundef @__func__.DEVICE)
  ret ptr %call
}

; Function Attrs: nounwind sspstrong uwtable
define internal ptr @VIRTIO_BLK(ptr noundef %obj) #0 {
entry:
  %obj.addr = alloca ptr, align 8
  store ptr %obj, ptr %obj.addr, align 8
  %0 = load ptr, ptr %obj.addr, align 8
  %call = call ptr @object_dynamic_cast_assert(ptr noundef %0, ptr noundef @.str.12, ptr noundef @.str.13, i32 noundef 26, ptr noundef @__func__.VIRTIO_BLK)
  ret ptr %call
}

; Function Attrs: nounwind sspstrong uwtable
define dso_local void @virtio_blk_data_plane_stop(ptr noundef %vdev) #0 {
entry:
  %vdev.addr = alloca ptr, align 8
  %vblk = alloca ptr, align 8
  %s = alloca ptr, align 8
  %qbus = alloca ptr, align 8
  %k = alloca ptr, align 8
  %i = alloca i32, align 4
  %nvqs = alloca i32, align 4
  store ptr %vdev, ptr %vdev.addr, align 8
  %0 = load ptr, ptr %vdev.addr, align 8
  %call = call ptr @VIRTIO_BLK(ptr noundef %0)
  store ptr %call, ptr %vblk, align 8
  %1 = load ptr, ptr %vblk, align 8
  %dataplane = getelementptr inbounds %struct.VirtIOBlock, ptr %1, i32 0, i32 9
  %2 = load ptr, ptr %dataplane, align 8
  store ptr %2, ptr %s, align 8
  %3 = load ptr, ptr %vblk, align 8
  %call1 = call ptr @DEVICE(ptr noundef %3)
  %call2 = call ptr @qdev_get_parent_bus(ptr noundef %call1)
  store ptr %call2, ptr %qbus, align 8
  %4 = load ptr, ptr %qbus, align 8
  %call3 = call ptr @VIRTIO_BUS_GET_CLASS(ptr noundef %4)
  store ptr %call3, ptr %k, align 8
  %5 = load ptr, ptr %s, align 8
  %conf = getelementptr inbounds %struct.VirtIOBlockDataPlane, ptr %5, i32 0, i32 2
  %6 = load ptr, ptr %conf, align 8
  %num_queues = getelementptr inbounds %struct.VirtIOBlkConf, ptr %6, i32 0, i32 4
  %7 = load i16, ptr %num_queues, align 4
  %conv = zext i16 %7 to i32
  store i32 %conv, ptr %nvqs, align 4
  %8 = load ptr, ptr %vblk, align 8
  %dataplane_started = getelementptr inbounds %struct.VirtIOBlock, ptr %8, i32 0, i32 8
  %9 = load i8, ptr %dataplane_started, align 1
  %tobool = trunc i8 %9 to i1
  br i1 %tobool, label %lor.lhs.false, label %if.then

lor.lhs.false:                                    ; preds = %entry
  %10 = load ptr, ptr %s, align 8
  %stopping = getelementptr inbounds %struct.VirtIOBlockDataPlane, ptr %10, i32 0, i32 1
  %11 = load i8, ptr %stopping, align 1
  %tobool4 = trunc i8 %11 to i1
  br i1 %tobool4, label %if.then, label %if.end

if.then:                                          ; preds = %lor.lhs.false, %entry
  br label %return

if.end:                                           ; preds = %lor.lhs.false
  %12 = load ptr, ptr %vblk, align 8
  %dataplane_disabled = getelementptr inbounds %struct.VirtIOBlock, ptr %12, i32 0, i32 7
  %13 = load i8, ptr %dataplane_disabled, align 8
  %tobool6 = trunc i8 %13 to i1
  br i1 %tobool6, label %if.then7, label %if.end10

if.then7:                                         ; preds = %if.end
  %14 = load ptr, ptr %vblk, align 8
  %dataplane_disabled8 = getelementptr inbounds %struct.VirtIOBlock, ptr %14, i32 0, i32 7
  store i8 0, ptr %dataplane_disabled8, align 8
  %15 = load ptr, ptr %vblk, align 8
  %dataplane_started9 = getelementptr inbounds %struct.VirtIOBlock, ptr %15, i32 0, i32 8
  store i8 0, ptr %dataplane_started9, align 1
  br label %return

if.end10:                                         ; preds = %if.end
  %16 = load ptr, ptr %s, align 8
  %stopping11 = getelementptr inbounds %struct.VirtIOBlockDataPlane, ptr %16, i32 0, i32 1
  store i8 1, ptr %stopping11, align 1
  %17 = load ptr, ptr %s, align 8
  call void @trace_virtio_blk_data_plane_stop(ptr noundef %17)
  %18 = load ptr, ptr %s, align 8
  %conf12 = getelementptr inbounds %struct.VirtIOBlockDataPlane, ptr %18, i32 0, i32 2
  %19 = load ptr, ptr %conf12, align 8
  %conf13 = getelementptr inbounds %struct.VirtIOBlkConf, ptr %19, i32 0, i32 0
  %blk = getelementptr inbounds %struct.BlockConf, ptr %conf13, i32 0, i32 0
  %20 = load ptr, ptr %blk, align 8
  %call14 = call zeroext i1 @blk_in_drain(ptr noundef %20)
  br i1 %call14, label %if.end16, label %if.then15

if.then15:                                        ; preds = %if.end10
  %21 = load ptr, ptr %s, align 8
  %ctx = getelementptr inbounds %struct.VirtIOBlockDataPlane, ptr %21, i32 0, i32 5
  %22 = load ptr, ptr %ctx, align 8
  %23 = load ptr, ptr %s, align 8
  call void @aio_wait_bh_oneshot(ptr noundef %22, ptr noundef @virtio_blk_data_plane_stop_bh, ptr noundef %23)
  br label %if.end16

if.end16:                                         ; preds = %if.then15, %if.end10
  call void @memory_region_transaction_begin()
  store i32 0, ptr %i, align 4
  br label %for.cond

for.cond:                                         ; preds = %for.inc, %if.end16
  %24 = load i32, ptr %i, align 4
  %25 = load i32, ptr %nvqs, align 4
  %cmp = icmp ult i32 %24, %25
  br i1 %cmp, label %for.body, label %for.end

for.body:                                         ; preds = %for.cond
  %26 = load ptr, ptr %qbus, align 8
  %call18 = call ptr @VIRTIO_BUS(ptr noundef %26)
  %27 = load i32, ptr %i, align 4
  %call19 = call i32 @virtio_bus_set_host_notifier(ptr noundef %call18, i32 noundef %27, i1 noundef zeroext false)
  br label %for.inc

for.inc:                                          ; preds = %for.body
  %28 = load i32, ptr %i, align 4
  %inc = add i32 %28, 1
  store i32 %inc, ptr %i, align 4
  br label %for.cond, !llvm.loop !14

for.end:                                          ; preds = %for.cond
  call void @memory_region_transaction_commit()
  store i32 0, ptr %i, align 4
  br label %for.cond20

for.cond20:                                       ; preds = %for.inc25, %for.end
  %29 = load i32, ptr %i, align 4
  %30 = load i32, ptr %nvqs, align 4
  %cmp21 = icmp ult i32 %29, %30
  br i1 %cmp21, label %for.body23, label %for.end27

for.body23:                                       ; preds = %for.cond20
  %31 = load ptr, ptr %qbus, align 8
  %call24 = call ptr @VIRTIO_BUS(ptr noundef %31)
  %32 = load i32, ptr %i, align 4
  call void @virtio_bus_cleanup_host_notifier(ptr noundef %call24, i32 noundef %32)
  br label %for.inc25

for.inc25:                                        ; preds = %for.body23
  %33 = load i32, ptr %i, align 4
  %inc26 = add i32 %33, 1
  store i32 %inc26, ptr %i, align 4
  br label %for.cond20, !llvm.loop !15

for.end27:                                        ; preds = %for.cond20
  %34 = load ptr, ptr %vblk, align 8
  %dataplane_started28 = getelementptr inbounds %struct.VirtIOBlock, ptr %34, i32 0, i32 8
  store i8 0, ptr %dataplane_started28, align 1
  %35 = load ptr, ptr %s, align 8
  %ctx29 = getelementptr inbounds %struct.VirtIOBlockDataPlane, ptr %35, i32 0, i32 5
  %36 = load ptr, ptr %ctx29, align 8
  call void @aio_context_acquire(ptr noundef %36)
  %37 = load ptr, ptr %s, align 8
  %conf30 = getelementptr inbounds %struct.VirtIOBlockDataPlane, ptr %37, i32 0, i32 2
  %38 = load ptr, ptr %conf30, align 8
  %conf31 = getelementptr inbounds %struct.VirtIOBlkConf, ptr %38, i32 0, i32 0
  %blk32 = getelementptr inbounds %struct.BlockConf, ptr %conf31, i32 0, i32 0
  %39 = load ptr, ptr %blk32, align 8
  call void @blk_drain(ptr noundef %39)
  %40 = load ptr, ptr %s, align 8
  %conf33 = getelementptr inbounds %struct.VirtIOBlockDataPlane, ptr %40, i32 0, i32 2
  %41 = load ptr, ptr %conf33, align 8
  %conf34 = getelementptr inbounds %struct.VirtIOBlkConf, ptr %41, i32 0, i32 0
  %blk35 = getelementptr inbounds %struct.BlockConf, ptr %conf34, i32 0, i32 0
  %42 = load ptr, ptr %blk35, align 8
  %call36 = call ptr @qemu_get_aio_context()
  %call37 = call i32 @blk_set_aio_context(ptr noundef %42, ptr noundef %call36, ptr noundef null)
  %43 = load ptr, ptr %s, align 8
  %ctx38 = getelementptr inbounds %struct.VirtIOBlockDataPlane, ptr %43, i32 0, i32 5
  %44 = load ptr, ptr %ctx38, align 8
  call void @aio_context_release(ptr noundef %44)
  %45 = load ptr, ptr %k, align 8
  %set_guest_notifiers = getelementptr inbounds %struct.VirtioBusClass, ptr %45, i32 0, i32 11
  %46 = load ptr, ptr %set_guest_notifiers, align 8
  %47 = load ptr, ptr %qbus, align 8
  %parent = getelementptr inbounds %struct.BusState, ptr %47, i32 0, i32 1
  %48 = load ptr, ptr %parent, align 8
  %49 = load i32, ptr %nvqs, align 4
  %call39 = call i32 %46(ptr noundef %48, i32 noundef %49, i1 noundef zeroext false)
  %50 = load ptr, ptr %s, align 8
  %stopping40 = getelementptr inbounds %struct.VirtIOBlockDataPlane, ptr %50, i32 0, i32 1
  store i8 0, ptr %stopping40, align 1
  br label %return

return:                                           ; preds = %for.end27, %if.then7, %if.then
  ret void
}