; Function Attrs: nounwind sspstrong uwtable
define dso_local void @virtio_blk_data_plane_stop(ptr noundef %vdev) local_unnamed_addr #0 {
entry:
  %_now.i.i = alloca %struct.timeval, align 8
  %call.i = tail call ptr @object_dynamic_cast_assert(ptr noundef %vdev, ptr noundef nonnull @.str.12, ptr noundef nonnull @.str.13, i32 noundef 26, ptr noundef nonnull @__func__.VIRTIO_BLK) #6
  %dataplane = getelementptr inbounds nuw i8, ptr %call.i, i64 688
  %0 = load ptr, ptr %dataplane, align 8
  %call.i28 = tail call ptr @object_dynamic_cast_assert(ptr noundef %call.i, ptr noundef nonnull @.str.9, ptr noundef nonnull @.str.8, i32 noundef 77, ptr noundef nonnull @__func__.DEVICE) #6
  %call2 = tail call ptr @qdev_get_parent_bus(ptr noundef %call.i28) #6
  %call.i29 = tail call ptr @object_get_class(ptr noundef %call2) #6
  %call1.i = tail call ptr @object_class_dynamic_cast_assert(ptr noundef %call.i29, ptr noundef nonnull @.str.10, ptr noundef nonnull @.str.11, i32 noundef 36, ptr noundef nonnull @__func__.VIRTIO_BUS_GET_CLASS) #6
  %conf = getelementptr inbounds nuw i8, ptr %0, i64 8
  %1 = load ptr, ptr %conf, align 8
  %num_queues = getelementptr inbounds nuw i8, ptr %1, i64 108
  %2 = load i16, ptr %num_queues, align 4
  %conv = zext i16 %2 to i32
  %dataplane_started = getelementptr inbounds nuw i8, ptr %call.i, i64 681
  %3 = load i8, ptr %dataplane_started, align 1
  %tobool = trunc i8 %3 to i1
  br i1 %tobool, label %lor.lhs.false, label %return

lor.lhs.false:                                    ; preds = %entry
  %stopping = getelementptr inbounds nuw i8, ptr %0, i64 1
  %4 = load i8, ptr %stopping, align 1
  %tobool4 = trunc i8 %4 to i1
  br i1 %tobool4, label %return, label %if.end

if.end:                                           ; preds = %lor.lhs.false
  %dataplane_disabled = getelementptr inbounds nuw i8, ptr %call.i, i64 680
  %5 = load i8, ptr %dataplane_disabled, align 8
  %tobool6 = trunc i8 %5 to i1
  br i1 %tobool6, label %if.then7, label %if.end10

if.then7:                                         ; preds = %if.end
  store i8 0, ptr %dataplane_disabled, align 8
  store i8 0, ptr %dataplane_started, align 1
  br label %return

if.end10:                                         ; preds = %if.end
  store i8 1, ptr %stopping, align 1
  call void @llvm.lifetime.start.p0(i64 16, ptr nonnull %_now.i.i)
  %6 = load i32, ptr @trace_events_enabled_count, align 4
  %tobool.i.i = icmp ne i32 %6, 0
  %7 = load i16, ptr @_TRACE_VIRTIO_BLK_DATA_PLANE_STOP_DSTATE, align 2
  %tobool4.i.i = icmp ne i16 %7, 0
  %or.cond.i.i = select i1 %tobool.i.i, i1 %tobool4.i.i, i1 false
  br i1 %or.cond.i.i, label %land.lhs.true5.i.i, label %trace_virtio_blk_data_plane_stop.exit

land.lhs.true5.i.i:                               ; preds = %if.end10
  %8 = load i32, ptr @qemu_loglevel, align 4
  %and.i.i.i = and i32 %8, 32768
  %cmp.i.not.i.i = icmp eq i32 %and.i.i.i, 0
  br i1 %cmp.i.not.i.i, label %trace_virtio_blk_data_plane_stop.exit, label %if.then.i.i

if.then.i.i:                                      ; preds = %land.lhs.true5.i.i
  %9 = load i8, ptr @message_with_timestamp, align 1
  %tobool7.i.i = trunc i8 %9 to i1
  br i1 %tobool7.i.i, label %if.then8.i.i, label %if.else.i.i

if.then8.i.i:                                     ; preds = %if.then.i.i
  %call9.i.i = call i32 @gettimeofday(ptr noundef nonnull %_now.i.i, ptr noundef null) #6
  %call10.i.i = tail call i32 @qemu_get_thread_id() #6
  %10 = load i64, ptr %_now.i.i, align 8
  %tv_usec.i.i = getelementptr inbounds nuw i8, ptr %_now.i.i, i64 8
  %11 = load i64, ptr %tv_usec.i.i, align 8
  tail call void (ptr, ...) @qemu_log(ptr noundef nonnull @.str.16, i32 noundef %call10.i.i, i64 noundef %10, i64 noundef %11, ptr noundef nonnull %0) #6
  br label %trace_virtio_blk_data_plane_stop.exit

if.else.i.i:                                      ; preds = %if.then.i.i
  tail call void (ptr, ...) @qemu_log(ptr noundef nonnull @.str.17, ptr noundef nonnull %0) #6
  br label %trace_virtio_blk_data_plane_stop.exit

trace_virtio_blk_data_plane_stop.exit:            ; preds = %if.end10, %land.lhs.true5.i.i, %if.then8.i.i, %if.else.i.i
  call void @llvm.lifetime.end.p0(i64 16, ptr nonnull %_now.i.i)
  %12 = load ptr, ptr %conf, align 8
  %13 = load ptr, ptr %12, align 8
  %call14 = tail call zeroext i1 @blk_in_drain(ptr noundef %13) #6
  br i1 %call14, label %if.end16, label %if.then15

if.then15:                                        ; preds = %trace_virtio_blk_data_plane_stop.exit
  %ctx = getelementptr inbounds nuw i8, ptr %0, i64 32
  %14 = load ptr, ptr %ctx, align 8
  tail call void @aio_wait_bh_oneshot(ptr noundef %14, ptr noundef nonnull @virtio_blk_data_plane_stop_bh, ptr noundef nonnull %0) #6
  br label %if.end16

if.end16:                                         ; preds = %if.then15, %trace_virtio_blk_data_plane_stop.exit
  tail call void @memory_region_transaction_begin() #6
  %cmp32.not = icmp eq i16 %2, 0
  br i1 %cmp32.not, label %for.end.thread, label %for.body

for.end.thread:                                   ; preds = %if.end16
  tail call void @memory_region_transaction_commit() #6
  br label %for.end27

for.body:                                         ; preds = %if.end16, %for.body
  %i.033 = phi i32 [ %inc, %for.body ], [ 0, %if.end16 ]
  %call.i30 = tail call ptr @object_dynamic_cast_assert(ptr noundef %call2, ptr noundef nonnull @.str.10, ptr noundef nonnull @.str.11, i32 noundef 36, ptr noundef nonnull @__func__.VIRTIO_BUS) #6
  %call19 = tail call i32 @virtio_bus_set_host_notifier(ptr noundef %call.i30, i32 noundef %i.033, i1 noundef zeroext false) #6
  %inc = add nuw nsw i32 %i.033, 1
  %exitcond.not = icmp eq i32 %inc, %conv
  br i1 %exitcond.not, label %for.end, label %for.body, !llvm.loop !14

for.end:                                          ; preds = %for.body
  tail call void @memory_region_transaction_commit() #6
  br label %for.body23

for.body23:                                       ; preds = %for.end, %for.body23
  %i.135 = phi i32 [ %inc26, %for.body23 ], [ 0, %for.end ]
  %call.i31 = tail call ptr @object_dynamic_cast_assert(ptr noundef %call2, ptr noundef nonnull @.str.10, ptr noundef nonnull @.str.11, i32 noundef 36, ptr noundef nonnull @__func__.VIRTIO_BUS) #6
  tail call void @virtio_bus_cleanup_host_notifier(ptr noundef %call.i31, i32 noundef %i.135) #6
  %inc26 = add nuw nsw i32 %i.135, 1
  %exitcond36.not = icmp eq i32 %inc26, %conv
  br i1 %exitcond36.not, label %for.end27, label %for.body23, !llvm.loop !15

for.end27:                                        ; preds = %for.body23, %for.end.thread
  store i8 0, ptr %dataplane_started, align 1
  %ctx29 = getelementptr inbounds nuw i8, ptr %0, i64 32
  %15 = load ptr, ptr %ctx29, align 8
  tail call void @aio_context_acquire(ptr noundef %15) #6
  %16 = load ptr, ptr %conf, align 8
  %17 = load ptr, ptr %16, align 8
  tail call void @blk_drain(ptr noundef %17) #6
  %18 = load ptr, ptr %conf, align 8
  %19 = load ptr, ptr %18, align 8
  %call36 = tail call ptr @qemu_get_aio_context() #6
  %call37 = tail call i32 @blk_set_aio_context(ptr noundef %19, ptr noundef %call36, ptr noundef null) #6
  %20 = load ptr, ptr %ctx29, align 8
  tail call void @aio_context_release(ptr noundef %20) #6
  %set_guest_notifiers = getelementptr inbounds nuw i8, ptr %call1.i, i64 240
  %21 = load ptr, ptr %set_guest_notifiers, align 8
  %parent = getelementptr inbounds nuw i8, ptr %call2, i64 40
  %22 = load ptr, ptr %parent, align 8
  %call39 = tail call i32 %21(ptr noundef %22, i32 noundef %conv, i1 noundef zeroext false) #6
  store i8 0, ptr %stopping, align 1
  br label %return

return:                                           ; preds = %entry, %lor.lhs.false, %for.end27, %if.then7
  ret void
}